target datalayout = "e-m:e-p270:32:32-p271:32:32-p272:64:64-i64:64-i128:128-f80:128-n8:16:32:64-S128"
target triple = "x86_64-pc-linux-gnu"

%class.cache_sim_t = type <{ ptr, %class.lfsr_t, [4 x i8], ptr, i64, i64, i64, i64, ptr, i64, i64, i64, i64, i64, i64, i64, %"class.std::__cxx11::basic_string", i8, [7 x i8] }>
%class.lfsr_t = type { i32 }
%"class.std::__cxx11::basic_string" = type { %"struct.std::__cxx11::basic_string<char>::_Alloc_hider", i64, %union.anon }
%"struct.std::__cxx11::basic_string<char>::_Alloc_hider" = type { ptr }
%union.anon = type { i64, [8 x i8] }

; Function Attrs: mustprogress nounwind uwtable
define noundef ptr @_ZN11cache_sim_t9check_tagEm(ptr noundef nonnull align 8 dereferenceable(153) %0, i64 noundef %1) unnamed_addr #5 align 2 {
  %3 = alloca ptr, align 8
  %4 = alloca ptr, align 8
  %5 = alloca i64, align 8
  %6 = alloca i64, align 8
  %7 = alloca i64, align 8
  %8 = alloca i64, align 8
  store ptr %0, ptr %4, align 8
  store i64 %1, ptr %5, align 8
  %9 = load ptr, ptr %4, align 8
  %10 = load i64, ptr %5, align 8
  %11 = getelementptr inbounds %class.cache_sim_t, ptr %9, i32 0, i32 7
  %12 = load i64, ptr %11, align 8
  %13 = lshr i64 %10, %12
  %14 = getelementptr inbounds %class.cache_sim_t, ptr %9, i32 0, i32 4
  %15 = load i64, ptr %14, align 8
  %16 = sub i64 %15, 1
  %17 = and i64 %13, %16
  store i64 %17, ptr %6, align 8
  %18 = load i64, ptr %5, align 8
  %19 = getelementptr inbounds %class.cache_sim_t, ptr %9, i32 0, i32 7
  %20 = load i64, ptr %19, align 8
  %21 = lshr i64 %18, %20
  %22 = or i64 %21, -9223372036854775808
  store i64 %22, ptr %7, align 8
  store i64 0, ptr %8, align 8
  br label %23

23:                                               ; preds = %53, %2
  %24 = load i64, ptr %8, align 8
  %25 = getelementptr inbounds %class.cache_sim_t, ptr %9, i32 0, i32 5
  %26 = load i64, ptr %25, align 8
  %27 = icmp ult i64 %24, %26
  br i1 %27, label %28, label %56

28:                                               ; preds = %23
  %29 = load i64, ptr %7, align 8
  %30 = getelementptr inbounds %class.cache_sim_t, ptr %9, i32 0, i32 8
  %31 = load ptr, ptr %30, align 8
  %32 = load i64, ptr %6, align 8
  %33 = getelementptr inbounds %class.cache_sim_t, ptr %9, i32 0, i32 5
  %34 = load i64, ptr %33, align 8
  %35 = mul i64 %32, %34
  %36 = load i64, ptr %8, align 8
  %37 = add i64 %35, %36
  %38 = getelementptr inbounds i64, ptr %31, i64 %37
  %39 = load i64, ptr %38, align 8
  %40 = and i64 %39, -4611686018427387905
  %41 = icmp eq i64 %29, %40
  br i1 %41, label %42, label %52

42:                                               ; preds = %28
  %43 = getelementptr inbounds %class.cache_sim_t, ptr %9, i32 0, i32 8
  %44 = load ptr, ptr %43, align 8
  %45 = load i64, ptr %6, align 8
  %46 = getelementptr inbounds %class.cache_sim_t, ptr %9, i32 0, i32 5
  %47 = load i64, ptr %46, align 8
  %48 = mul i64 %45, %47
  %49 = load i64, ptr %8, align 8
  %50 = add i64 %48, %49
  %51 = getelementptr inbounds i64, ptr %44, i64 %50
  store ptr %51, ptr %3, align 8
  br label %57

52:                                               ; preds = %28
  br label %53

53:                                               ; preds = %52
  %54 = load i64, ptr %8, align 8
  %55 = add i64 %54, 1
  store i64 %55, ptr %8, align 8
  br label %23, !llvm.loop !6

56:                                               ; preds = %23
  store ptr null, ptr %3, align 8
  br label %57

57:                                               ; preds = %56, %42
  %58 = load ptr, ptr %3, align 8
  ret ptr %58
}