; Function Attrs: mustprogress nofree norecurse nosync nounwind willreturn memory(read, inaccessiblemem: none) uwtable
define noundef ptr @_ZN11cache_sim_t9check_tagEm(ptr nocapture noundef nonnull readonly align 8 dereferenceable(153) %0, i64 noundef %1) unnamed_addr #12 align 2 {
  %3 = getelementptr inbounds i8, ptr %0, i64 48
  %4 = load i64, ptr %3, align 8
  %5 = lshr i64 %1, %4
  %6 = or i64 %5, -9223372036854775808
  %7 = getelementptr inbounds i8, ptr %0, i64 32
  %8 = load i64, ptr %7, align 8
  %.not = icmp eq i64 %8, 0
  br i1 %.not, label %.split.loop.exit, label %.lr.ph

.lr.ph:                                           ; preds = %2
  %9 = getelementptr inbounds i8, ptr %0, i64 56
  %10 = getelementptr inbounds i8, ptr %0, i64 24
  %11 = load i64, ptr %10, align 8
  %12 = add i64 %11, -1
  %13 = and i64 %12, %5
  %14 = load ptr, ptr %9, align 8
  %15 = mul i64 %8, %13
  %16 = getelementptr i64, ptr %14, i64 %15
  br label %17

17:                                               ; preds = %.lr.ph, %22
  %.014 = phi i64 [ 0, %.lr.ph ], [ %23, %22 ]
  %18 = getelementptr i64, ptr %16, i64 %.014
  %19 = load i64, ptr %18, align 8
  %20 = and i64 %19, -4611686018427387905
  %21 = icmp eq i64 %6, %20
  br i1 %21, label %.split.loop.exit.loopexit.split.loop.exit, label %22

22:                                               ; preds = %17
  %23 = add nuw i64 %.014, 1
  %exitcond.not = icmp eq i64 %23, %8
  br i1 %exitcond.not, label %.split.loop.exit, label %17, !llvm.loop !7

.split.loop.exit.loopexit.split.loop.exit:        ; preds = %17
  %24 = getelementptr i64, ptr %16, i64 %.014
  br label %.split.loop.exit

.split.loop.exit:                                 ; preds = %22, %.split.loop.exit.loopexit.split.loop.exit, %2
  %.010 = phi ptr [ null, %2 ], [ %24, %.split.loop.exit.loopexit.split.loop.exit ], [ null, %22 ]
  ret ptr %.010
}